target datalayout = "e-m:e-p270:32:32-p271:32:32-p272:64:64-i64:64-i128:128-f80:128-n8:16:32:64-S128"
target triple = "x86_64-pc-linux-gnu"

%"struct.std::pair" = type { double, double }

; Function Attrs: inlinehint mustprogress nounwind uwtable
define linkonce_odr noundef double @_ZSt3absd(double noundef %0) #6 comdat {
  %2 = alloca double, align 8
  store double %0, ptr %2, align 8
  %3 = load double, ptr %2, align 8
  %4 = call double @llvm.fabs.f64(double %3)
  ret double %4
}

; Function Attrs: mustprogress uwtable
define hidden noundef double @_ZNK6Assimp3IFC5Curve23GetParametricRangeDeltaEv(ptr noundef nonnull align 8 dereferenceable(24) %0) #1 align 2 {
  %2 = alloca ptr, align 8
  %3 = alloca ptr, align 8
  %4 = alloca %"struct.std::pair", align 8
  store ptr %0, ptr %2, align 8
  %5 = load ptr, ptr %2, align 8
  call void @llvm.lifetime.start.p0(i64 8, ptr %3) #19
  call void @llvm.lifetime.start.p0(i64 16, ptr %4) #19
  %6 = load ptr, ptr %5, align 8
  %7 = getelementptr inbounds ptr, ptr %6, i64 5
  %8 = load ptr, ptr %7, align 8
  %9 = call { double, double } %8(ptr noundef nonnull align 8 dereferenceable(24) %5)
  %10 = getelementptr inbounds nuw { double, double }, ptr %4, i32 0, i32 0
  %11 = extractvalue { double, double } %9, 0
  store double %11, ptr %10, align 8
  %12 = getelementptr inbounds nuw { double, double }, ptr %4, i32 0, i32 1
  %13 = extractvalue { double, double } %9, 1
  store double %13, ptr %12, align 8
  store ptr %4, ptr %3, align 8
  %14 = load ptr, ptr %3, align 8
  %15 = getelementptr inbounds nuw %"struct.std::pair", ptr %14, i32 0, i32 1
  %16 = load double, ptr %15, align 8
  %17 = load ptr, ptr %3, align 8
  %18 = getelementptr inbounds nuw %"struct.std::pair", ptr %17, i32 0, i32 0
  %19 = load double, ptr %18, align 8
  %20 = fsub double %16, %19
  %21 = call noundef double @_ZSt3absd(double noundef %20)
  call void @llvm.lifetime.end.p0(i64 16, ptr %4) #19
  call void @llvm.lifetime.end.p0(i64 8, ptr %3) #19
  ret double %21
}