; Function Attrs: mustprogress uwtable
define hidden noundef double @_ZNK6Assimp3IFC5Curve23GetParametricRangeDeltaEv(ptr noundef nonnull align 8 dereferenceable(24) %0) local_unnamed_addr #1 align 2 {
  %2 = load ptr, ptr %0, align 8
  %3 = getelementptr inbounds nuw i8, ptr %2, i64 40
  %4 = load ptr, ptr %3, align 8
  %5 = tail call { double, double } %4(ptr noundef nonnull align 8 dereferenceable(24) %0)
  %6 = extractvalue { double, double } %5, 0
  %7 = extractvalue { double, double } %5, 1
  %8 = fsub double %7, %6
  %9 = tail call noundef double @llvm.fabs.f64(double %8)
  ret double %9
}